target datalayout = "e-m:e-p270:32:32-p271:32:32-p272:64:64-i64:64-i128:128-f80:128-n8:16:32:64-S128"
target triple = "x86_64-pc-linux-gnu"

%"class.std::__cxx11::basic_string" = type { %"struct.std::__cxx11::basic_string<char>::_Alloc_hider", i64, %union.anon }
%"struct.std::__cxx11::basic_string<char>::_Alloc_hider" = type { ptr }
%union.anon = type { i64, [8 x i8] }
%class.cmConditionEvaluator = type <{ ptr, %class.cmListFileBacktrace, i32, i32, i32, i32, i32, [4 x i8] }>
%class.cmListFileBacktrace = type { %class.cmConstStack }
%class.cmConstStack = type { %"class.std::shared_ptr" }
%"class.std::shared_ptr" = type { %"class.std::__shared_ptr" }
%"class.std::__shared_ptr" = type { ptr, %"class.std::__shared_count" }
%"class.std::__shared_count" = type { ptr }
%class.cmValue = type { ptr }
%"class.std::__cxx11::basic_ostringstream" = type { %"class.std::basic_ostream.base", %"class.std::__cxx11::basic_stringbuf", %"class.std::basic_ios" }
%"class.std::basic_ostream.base" = type { ptr }
%"class.std::__cxx11::basic_stringbuf" = type { %"class.std::basic_streambuf", i32, %"class.std::__cxx11::basic_string" }
%"class.std::basic_streambuf" = type { ptr, ptr, ptr, ptr, ptr, ptr, ptr, %"class.std::locale" }
%"class.std::locale" = type { ptr }
%"class.std::basic_ios" = type { %"class.std::ios_base", ptr, i8, i8, ptr, ptr, ptr, ptr }
%"class.std::ios_base" = type { ptr, i64, i64, i32, i32, i32, ptr, %"struct.std::ios_base::_Words", [8 x %"struct.std::ios_base::_Words"], i32, ptr, %"class.std::locale" }
%"struct.std::ios_base::_Words" = type { ptr, i64 }

@.str.74 = private unnamed_addr constant [25 x i8] c"\0AQuoted variables like \22\00", align 1
@.str.75 = private unnamed_addr constant [124 x i8] c"\22 will no longer be dereferenced when the policy is set to NEW.  Since the policy is not set the OLD behavior will be used.\00", align 1

; Function Attrs: mustprogress nounwind uwtable
define linkonce_odr dso_local noundef zeroext i1 @_ZNK7cmValuecvbEv(ptr noundef nonnull align 8 dereferenceable(8) %0) #5 comdat align 2 {
  %2 = alloca ptr, align 8
  store ptr %0, ptr %2, align 8
  %3 = load ptr, ptr %2, align 8
  %4 = getelementptr inbounds %class.cmValue, ptr %3, i32 0, i32 0
  %5 = load ptr, ptr %4, align 8
  %6 = icmp ne ptr %5, null
  ret i1 %6
}

; Function Attrs: mustprogress nounwind uwtable
define linkonce_odr dso_local void @_ZN7cmValueC2EDn(ptr noundef nonnull align 8 dereferenceable(8) %0, ptr %1) unnamed_addr #5 comdat align 2 {
  %3 = alloca ptr, align 8
  %4 = alloca ptr, align 8
  store ptr %0, ptr %3, align 8
  store ptr %1, ptr %4, align 8
  %5 = load ptr, ptr %3, align 8
  %6 = getelementptr inbounds %class.cmValue, ptr %5, i32 0, i32 0
  store ptr null, ptr %6, align 8
  ret void
}

; Function Attrs: mustprogress uwtable
define dso_local ptr @_ZNK20cmConditionEvaluator23GetDefinitionIfUnquotedERK25cmExpandedCommandArgument(ptr noundef nonnull align 8 dereferenceable(44) %0, ptr noundef nonnull align 8 dereferenceable(33) %1) #4 align 2 personality ptr @__gxx_personality_v0 {
  %3 = alloca %class.cmValue, align 8
  %4 = alloca ptr, align 8
  %5 = alloca ptr, align 8
  %6 = alloca %"class.std::__cxx11::basic_ostringstream", align 8
  %7 = alloca %"class.std::__cxx11::basic_string", align 8
  %8 = alloca ptr, align 8
  %9 = alloca i32, align 4
  %10 = alloca %"class.std::__cxx11::basic_string", align 8
  store ptr %0, ptr %4, align 8
  store ptr %1, ptr %5, align 8
  %11 = load ptr, ptr %4, align 8
  %12 = getelementptr inbounds %class.cmConditionEvaluator, ptr %11, i32 0, i32 3
  %13 = load i32, ptr %12, align 4
  %14 = icmp ne i32 %13, 1
  br i1 %14, label %15, label %23

15:                                               ; preds = %2
  %16 = getelementptr inbounds %class.cmConditionEvaluator, ptr %11, i32 0, i32 3
  %17 = load i32, ptr %16, align 4
  %18 = icmp ne i32 %17, 0
  br i1 %18, label %19, label %23

19:                                               ; preds = %15
  %20 = load ptr, ptr %5, align 8
  %21 = call noundef zeroext i1 @_ZNK25cmExpandedCommandArgument9WasQuotedEv(ptr noundef nonnull align 8 dereferenceable(33) %20)
  br i1 %21, label %22, label %23

22:                                               ; preds = %19
  call void @_ZN7cmValueC2EDn(ptr noundef nonnull align 8 dereferenceable(8) %3, ptr null) #3
  br label %79

23:                                               ; preds = %19, %15, %2
  %24 = getelementptr inbounds %class.cmConditionEvaluator, ptr %11, i32 0, i32 0
  %25 = load ptr, ptr %24, align 8
  %26 = load ptr, ptr %5, align 8
  %27 = call noundef nonnull align 8 dereferenceable(32) ptr @_ZNK25cmExpandedCommandArgument8GetValueB5cxx11Ev(ptr noundef nonnull align 8 dereferenceable(33) %26)
  %28 = call ptr @_ZNK10cmMakefile13GetDefinitionERKNSt7__cxx1112basic_stringIcSt11char_traitsIcESaIcEEE(ptr noundef nonnull align 8 dereferenceable(3520) %25, ptr noundef nonnull align 8 dereferenceable(32) %27)
  %29 = getelementptr inbounds %class.cmValue, ptr %3, i32 0, i32 0
  store ptr %28, ptr %29, align 8
  %30 = call noundef zeroext i1 @_ZNK7cmValuecvbEv(ptr noundef nonnull align 8 dereferenceable(8) %3) #3
  br i1 %30, label %31, label %78

31:                                               ; preds = %23
  %32 = load ptr, ptr %5, align 8
  %33 = call noundef zeroext i1 @_ZNK25cmExpandedCommandArgument9WasQuotedEv(ptr noundef nonnull align 8 dereferenceable(33) %32)
  br i1 %33, label %34, label %78

34:                                               ; preds = %31
  %35 = getelementptr inbounds %class.cmConditionEvaluator, ptr %11, i32 0, i32 3
  %36 = load i32, ptr %35, align 4
  %37 = icmp eq i32 %36, 1
  br i1 %37, label %38, label %78

38:                                               ; preds = %34
  %39 = getelementptr inbounds %class.cmConditionEvaluator, ptr %11, i32 0, i32 0
  %40 = load ptr, ptr %39, align 8
  %41 = getelementptr inbounds %class.cmConditionEvaluator, ptr %11, i32 0, i32 1
  %42 = call noundef nonnull align 8 dereferenceable(112) ptr @_ZNK12cmConstStackI17cmListFileContext19cmListFileBacktraceE3TopEv(ptr noundef nonnull align 8 dereferenceable(16) %41)
  %43 = call noundef zeroext i1 @_ZNK10cmMakefile29HasCMP0054AlreadyBeenReportedERK17cmListFileContext(ptr noundef nonnull align 8 dereferenceable(3520) %40, ptr noundef nonnull align 8 dereferenceable(112) %42)
  br i1 %43, label %77, label %44

44:                                               ; preds = %38
  call void @_ZNSt7__cxx1119basic_ostringstreamIcSt11char_traitsIcESaIcEEC1Ev(ptr noundef nonnull align 8 dereferenceable(112) %6)
  invoke void @_ZN10cmPolicies16GetPolicyWarningB5cxx11ENS_8PolicyIDE(ptr dead_on_unwind writable sret(%"class.std::__cxx11::basic_string") align 8 %7, i32 noundef 54)
          to label %45 unwind label %64

45:                                               ; preds = %44
  %46 = invoke noundef nonnull align 8 dereferenceable(8) ptr @_ZStlsIcSt11char_traitsIcESaIcEERSt13basic_ostreamIT_T0_ES7_RKNSt7__cxx1112basic_stringIS4_S5_T1_EE(ptr noundef nonnull align 8 dereferenceable(8) %6, ptr noundef nonnull align 8 dereferenceable(32) %7)
          to label %47 unwind label %68

47:                                               ; preds = %45
  %48 = invoke noundef nonnull align 8 dereferenceable(8) ptr @_ZStlsISt11char_traitsIcEERSt13basic_ostreamIcT_ES5_PKc(ptr noundef nonnull align 8 dereferenceable(8) %46, ptr noundef @.str.74)
          to label %49 unwind label %68

49:                                               ; preds = %47
  %50 = load ptr, ptr %5, align 8
  %51 = invoke noundef nonnull align 8 dereferenceable(32) ptr @_ZNK25cmExpandedCommandArgument8GetValueB5cxx11Ev(ptr noundef nonnull align 8 dereferenceable(33) %50)
          to label %52 unwind label %68

52:                                               ; preds = %49
  %53 = invoke noundef nonnull align 8 dereferenceable(8) ptr @_ZStlsIcSt11char_traitsIcESaIcEERSt13basic_ostreamIT_T0_ES7_RKNSt7__cxx1112basic_stringIS4_S5_T1_EE(ptr noundef nonnull align 8 dereferenceable(8) %48, ptr noundef nonnull align 8 dereferenceable(32) %51)
          to label %54 unwind label %68

54:                                               ; preds = %52
  %55 = invoke noundef nonnull align 8 dereferenceable(8) ptr @_ZStlsISt11char_traitsIcEERSt13basic_ostreamIcT_ES5_PKc(ptr noundef nonnull align 8 dereferenceable(8) %53, ptr noundef @.str.75)
          to label %56 unwind label %68

56:                                               ; preds = %54
  call void @_ZNSt7__cxx1112basic_stringIcSt11char_traitsIcESaIcEED1Ev(ptr noundef nonnull align 8 dereferenceable(32) %7) #3
  %57 = getelementptr inbounds %class.cmConditionEvaluator, ptr %11, i32 0, i32 0
  %58 = load ptr, ptr %57, align 8
  %59 = invoke noundef ptr @_ZNK10cmMakefile16GetCMakeInstanceEv(ptr noundef nonnull align 8 dereferenceable(3520) %58)
          to label %60 unwind label %64

60:                                               ; preds = %56
  invoke void @_ZNKSt7__cxx1119basic_ostringstreamIcSt11char_traitsIcESaIcEE3strEv(ptr dead_on_unwind writable sret(%"class.std::__cxx11::basic_string") align 8 %10, ptr noundef nonnull align 8 dereferenceable(112) %6)
          to label %61 unwind label %64

61:                                               ; preds = %60
  %62 = getelementptr inbounds %class.cmConditionEvaluator, ptr %11, i32 0, i32 1
  invoke void @_ZNK5cmake12IssueMessageE11MessageTypeRKNSt7__cxx1112basic_stringIcSt11char_traitsIcESaIcEEERK19cmListFileBacktrace(ptr noundef nonnull align 8 dereferenceable(2216) %59, i32 noundef 0, ptr noundef nonnull align 8 dereferenceable(32) %10, ptr noundef nonnull align 8 dereferenceable(16) %62)
          to label %63 unwind label %72

63:                                               ; preds = %61
  call void @_ZNSt7__cxx1112basic_stringIcSt11char_traitsIcESaIcEED1Ev(ptr noundef nonnull align 8 dereferenceable(32) %10) #3
  call void @_ZNSt7__cxx1119basic_ostringstreamIcSt11char_traitsIcESaIcEED1Ev(ptr noundef nonnull align 8 dereferenceable(112) %6) #3
  br label %77

64:                                               ; preds = %60, %56, %44
  %65 = landingpad { ptr, i32 }
          cleanup
  %66 = extractvalue { ptr, i32 } %65, 0
  store ptr %66, ptr %8, align 8
  %67 = extractvalue { ptr, i32 } %65, 1
  store i32 %67, ptr %9, align 4
  br label %76

68:                                               ; preds = %54, %52, %49, %47, %45
  %69 = landingpad { ptr, i32 }
          cleanup
  %70 = extractvalue { ptr, i32 } %69, 0
  store ptr %70, ptr %8, align 8
  %71 = extractvalue { ptr, i32 } %69, 1
  store i32 %71, ptr %9, align 4
  call void @_ZNSt7__cxx1112basic_stringIcSt11char_traitsIcESaIcEED1Ev(ptr noundef nonnull align 8 dereferenceable(32) %7) #3
  br label %76

72:                                               ; preds = %61
  %73 = landingpad { ptr, i32 }
          cleanup
  %74 = extractvalue { ptr, i32 } %73, 0
  store ptr %74, ptr %8, align 8
  %75 = extractvalue { ptr, i32 } %73, 1
  store i32 %75, ptr %9, align 4
  call void @_ZNSt7__cxx1112basic_stringIcSt11char_traitsIcESaIcEED1Ev(ptr noundef nonnull align 8 dereferenceable(32) %10) #3
  br label %76

76:                                               ; preds = %72, %68, %64
  call void @_ZNSt7__cxx1119basic_ostringstreamIcSt11char_traitsIcESaIcEED1Ev(ptr noundef nonnull align 8 dereferenceable(112) %6) #3
  br label %82

77:                                               ; preds = %63, %38
  br label %78

78:                                               ; preds = %77, %34, %31, %23
  br label %79

79:                                               ; preds = %78, %22
  %80 = getelementptr inbounds %class.cmValue, ptr %3, i32 0, i32 0
  %81 = load ptr, ptr %80, align 8
  ret ptr %81

82:                                               ; preds = %76
  %83 = load ptr, ptr %8, align 8
  %84 = load i32, ptr %9, align 4
  %85 = insertvalue { ptr, i32 } poison, ptr %83, 0
  %86 = insertvalue { ptr, i32 } %85, i32 %84, 1
  resume { ptr, i32 } %86
}