; Function Attrs: mustprogress uwtable
define dso_local ptr @_ZNK20cmConditionEvaluator23GetDefinitionIfUnquotedERK25cmExpandedCommandArgument(ptr noundef nonnull align 8 dereferenceable(44) %0, ptr noundef nonnull align 8 dereferenceable(33) %1) local_unnamed_addr #3 align 2 personality ptr @__gxx_personality_v0 {
  %3 = alloca %"class.std::__cxx11::basic_ostringstream", align 8
  %4 = alloca %"class.std::__cxx11::basic_string", align 8
  %5 = alloca %"class.std::__cxx11::basic_string", align 8
  %6 = getelementptr inbounds nuw i8, ptr %0, i64 28
  %7 = load i32, ptr %6, align 4
  %switch = icmp ult i32 %7, 2
  br i1 %switch, label %10, label %8

8:                                                ; preds = %2
  %9 = tail call noundef zeroext i1 @_ZNK25cmExpandedCommandArgument9WasQuotedEv(ptr noundef nonnull align 8 dereferenceable(33) %1)
  br i1 %9, label %47, label %10

10:                                               ; preds = %2, %8
  %11 = load ptr, ptr %0, align 8
  %12 = tail call noundef nonnull align 8 dereferenceable(32) ptr @_ZNK25cmExpandedCommandArgument8GetValueB5cxx11Ev(ptr noundef nonnull align 8 dereferenceable(33) %1)
  %13 = tail call ptr @_ZNK10cmMakefile13GetDefinitionERKNSt7__cxx1112basic_stringIcSt11char_traitsIcESaIcEEE(ptr noundef nonnull align 8 dereferenceable(3520) %11, ptr noundef nonnull align 8 dereferenceable(32) %12)
  %.not = icmp eq ptr %13, null
  br i1 %.not, label %47, label %14

14:                                               ; preds = %10
  %15 = tail call noundef zeroext i1 @_ZNK25cmExpandedCommandArgument9WasQuotedEv(ptr noundef nonnull align 8 dereferenceable(33) %1)
  %16 = load i32, ptr %6, align 4
  %17 = icmp eq i32 %16, 1
  %or.cond = select i1 %15, i1 %17, i1 false
  br i1 %or.cond, label %18, label %47

18:                                               ; preds = %14
  %19 = load ptr, ptr %0, align 8
  %20 = getelementptr inbounds nuw i8, ptr %0, i64 8
  %21 = tail call noundef nonnull align 8 dereferenceable(112) ptr @_ZNK12cmConstStackI17cmListFileContext19cmListFileBacktraceE3TopEv(ptr noundef nonnull align 8 dereferenceable(16) %20)
  %22 = tail call noundef zeroext i1 @_ZNK10cmMakefile29HasCMP0054AlreadyBeenReportedERK17cmListFileContext(ptr noundef nonnull align 8 dereferenceable(3520) %19, ptr noundef nonnull align 8 dereferenceable(112) %21)
  br i1 %22, label %47, label %23

23:                                               ; preds = %18
  call void @_ZNSt7__cxx1119basic_ostringstreamIcSt11char_traitsIcESaIcEEC1Ev(ptr noundef nonnull align 8 dereferenceable(112) %3)
  invoke void @_ZN10cmPolicies16GetPolicyWarningB5cxx11ENS_8PolicyIDE(ptr dead_on_unwind nonnull writable sret(%"class.std::__cxx11::basic_string") align 8 %4, i32 noundef 54)
          to label %24 unwind label %40

24:                                               ; preds = %23
  %25 = invoke noundef nonnull align 8 dereferenceable(8) ptr @_ZStlsIcSt11char_traitsIcESaIcEERSt13basic_ostreamIT_T0_ES7_RKNSt7__cxx1112basic_stringIS4_S5_T1_EE(ptr noundef nonnull align 8 dereferenceable(8) %3, ptr noundef nonnull align 8 dereferenceable(32) %4)
          to label %26 unwind label %42

26:                                               ; preds = %24
  %27 = invoke noundef nonnull align 8 dereferenceable(8) ptr @_ZStlsISt11char_traitsIcEERSt13basic_ostreamIcT_ES5_PKc(ptr noundef nonnull align 8 dereferenceable(8) %25, ptr noundef nonnull @.str.74)
          to label %28 unwind label %42

28:                                               ; preds = %26
  %29 = invoke noundef nonnull align 8 dereferenceable(32) ptr @_ZNK25cmExpandedCommandArgument8GetValueB5cxx11Ev(ptr noundef nonnull align 8 dereferenceable(33) %1)
          to label %30 unwind label %42

30:                                               ; preds = %28
  %31 = invoke noundef nonnull align 8 dereferenceable(8) ptr @_ZStlsIcSt11char_traitsIcESaIcEERSt13basic_ostreamIT_T0_ES7_RKNSt7__cxx1112basic_stringIS4_S5_T1_EE(ptr noundef nonnull align 8 dereferenceable(8) %27, ptr noundef nonnull align 8 dereferenceable(32) %29)
          to label %32 unwind label %42

32:                                               ; preds = %30
  %33 = invoke noundef nonnull align 8 dereferenceable(8) ptr @_ZStlsISt11char_traitsIcEERSt13basic_ostreamIcT_ES5_PKc(ptr noundef nonnull align 8 dereferenceable(8) %31, ptr noundef nonnull @.str.75)
          to label %34 unwind label %42

34:                                               ; preds = %32
  call void @_ZNSt7__cxx1112basic_stringIcSt11char_traitsIcESaIcEED1Ev(ptr noundef nonnull align 8 dereferenceable(32) %4) #19
  %35 = load ptr, ptr %0, align 8
  %36 = invoke noundef ptr @_ZNK10cmMakefile16GetCMakeInstanceEv(ptr noundef nonnull align 8 dereferenceable(3520) %35)
          to label %37 unwind label %40

37:                                               ; preds = %34
  invoke void @_ZNKSt7__cxx1119basic_ostringstreamIcSt11char_traitsIcESaIcEE3strEv(ptr dead_on_unwind nonnull writable sret(%"class.std::__cxx11::basic_string") align 8 %5, ptr noundef nonnull align 8 dereferenceable(112) %3)
          to label %38 unwind label %40

38:                                               ; preds = %37
  invoke void @_ZNK5cmake12IssueMessageE11MessageTypeRKNSt7__cxx1112basic_stringIcSt11char_traitsIcESaIcEEERK19cmListFileBacktrace(ptr noundef nonnull align 8 dereferenceable(2216) %36, i32 noundef 0, ptr noundef nonnull align 8 dereferenceable(32) %5, ptr noundef nonnull align 8 dereferenceable(16) %20)
          to label %39 unwind label %44

39:                                               ; preds = %38
  call void @_ZNSt7__cxx1112basic_stringIcSt11char_traitsIcESaIcEED1Ev(ptr noundef nonnull align 8 dereferenceable(32) %5) #19
  call void @_ZNSt7__cxx1119basic_ostringstreamIcSt11char_traitsIcESaIcEED1Ev(ptr noundef nonnull align 8 dereferenceable(112) %3) #19
  br label %47

40:                                               ; preds = %37, %34, %23
  %41 = landingpad { ptr, i32 }
          cleanup
  br label %46

42:                                               ; preds = %32, %30, %28, %26, %24
  %43 = landingpad { ptr, i32 }
          cleanup
  call void @_ZNSt7__cxx1112basic_stringIcSt11char_traitsIcESaIcEED1Ev(ptr noundef nonnull align 8 dereferenceable(32) %4) #19
  br label %46

44:                                               ; preds = %38
  %45 = landingpad { ptr, i32 }
          cleanup
  call void @_ZNSt7__cxx1112basic_stringIcSt11char_traitsIcESaIcEED1Ev(ptr noundef nonnull align 8 dereferenceable(32) %5) #19
  br label %46

46:                                               ; preds = %44, %42, %40
  %.pn = phi { ptr, i32 } [ %45, %44 ], [ %41, %40 ], [ %43, %42 ]
  call void @_ZNSt7__cxx1119basic_ostringstreamIcSt11char_traitsIcESaIcEED1Ev(ptr noundef nonnull align 8 dereferenceable(112) %3) #19
  resume { ptr, i32 } %.pn

47:                                               ; preds = %8, %10, %14, %39, %18
  %.sroa.0.0 = phi ptr [ %13, %18 ], [ %13, %39 ], [ %13, %14 ], [ null, %10 ], [ null, %8 ]
  ret ptr %.sroa.0.0
}